target datalayout = "e-m:e-p270:32:32-p271:32:32-p272:64:64-i64:64-i128:128-f80:128-n8:16:32:64-S128"
target triple = "x86_64-pc-linux-gnu"

%union.anon.10 = type { ptr }

@.str.1 = private unnamed_addr constant [6 x i8] c"CLASS\00", align 1
@.str.2 = private unnamed_addr constant [16 x i8] c"DIMENSION_SCALE\00", align 1

; Function Attrs: nounwind uwtable
define i32 @H5DSis_scale(i64 noundef %0) #0 {
  %2 = alloca i64, align 8
  %3 = alloca i64, align 8
  %4 = alloca i64, align 8
  %5 = alloca i32, align 4
  %6 = alloca i32, align 4
  %7 = alloca i32, align 4
  %8 = alloca ptr, align 8
  %9 = alloca i64, align 8
  %10 = alloca i32, align 4
  %11 = alloca i32, align 4
  %12 = alloca i32, align 4
  %13 = alloca %union.anon.10, align 8
  %14 = alloca ptr, align 8
  store i64 %0, ptr %2, align 8, !tbaa !3
  call void @llvm.lifetime.start.p0(i64 8, ptr %3) #10
  store i64 -1, ptr %3, align 8, !tbaa !3
  call void @llvm.lifetime.start.p0(i64 8, ptr %4) #10
  store i64 -1, ptr %4, align 8, !tbaa !3
  call void @llvm.lifetime.start.p0(i64 4, ptr %5) #10
  call void @llvm.lifetime.start.p0(i64 4, ptr %6) #10
  store i32 -1, ptr %6, align 4, !tbaa !16
  call void @llvm.lifetime.start.p0(i64 4, ptr %7) #10
  call void @llvm.lifetime.start.p0(i64 8, ptr %8) #10
  store ptr null, ptr %8, align 8, !tbaa !14
  call void @llvm.lifetime.start.p0(i64 8, ptr %9) #10
  call void @llvm.lifetime.start.p0(i64 4, ptr %10) #10
  call void @llvm.lifetime.start.p0(i64 4, ptr %11) #10
  %15 = load i64, ptr %2, align 8, !tbaa !3
  %16 = call i32 @H5Iget_type(i64 noundef %15)
  store i32 %16, ptr %7, align 4, !tbaa !16
  %17 = icmp slt i32 %16, 0
  br i1 %17, label %18, label %19

18:                                               ; preds = %1
  br label %110

19:                                               ; preds = %1
  %20 = load i32, ptr %7, align 4, !tbaa !16
  %21 = icmp ne i32 5, %20
  br i1 %21, label %22, label %23

22:                                               ; preds = %19
  br label %110

23:                                               ; preds = %19
  %24 = load i64, ptr %2, align 8, !tbaa !3
  %25 = call i32 @H5Aexists(i64 noundef %24, ptr noundef @.str.1)
  store i32 %25, ptr %5, align 4, !tbaa !16
  %26 = icmp slt i32 %25, 0
  br i1 %26, label %27, label %28

27:                                               ; preds = %23
  br label %110

28:                                               ; preds = %23
  %29 = load i32, ptr %5, align 4, !tbaa !16
  %30 = icmp eq i32 %29, 0
  br i1 %30, label %31, label %32

31:                                               ; preds = %28
  store i32 0, ptr %6, align 4, !tbaa !16
  br label %110

32:                                               ; preds = %28
  %33 = load i64, ptr %2, align 8, !tbaa !3
  %34 = call i64 @H5Aopen(i64 noundef %33, ptr noundef @.str.1, i64 noundef 0)
  store i64 %34, ptr %4, align 8, !tbaa !3
  %35 = icmp slt i64 %34, 0
  br i1 %35, label %36, label %37

36:                                               ; preds = %32
  br label %110

37:                                               ; preds = %32
  %38 = load i64, ptr %4, align 8, !tbaa !3
  %39 = call i64 @H5Aget_type(i64 noundef %38)
  store i64 %39, ptr %3, align 8, !tbaa !3
  %40 = icmp slt i64 %39, 0
  br i1 %40, label %41, label %42

41:                                               ; preds = %37
  br label %110

42:                                               ; preds = %37
  %43 = load i64, ptr %3, align 8, !tbaa !3
  %44 = call i32 @H5Tget_class(i64 noundef %43)
  store i32 %44, ptr %10, align 4, !tbaa !16
  %45 = icmp slt i32 %44, 0
  br i1 %45, label %46, label %47

46:                                               ; preds = %42
  br label %110

47:                                               ; preds = %42
  %48 = load i32, ptr %10, align 4, !tbaa !16
  %49 = icmp ne i32 3, %48
  br i1 %49, label %50, label %51

50:                                               ; preds = %47
  store i32 0, ptr %6, align 4, !tbaa !16
  br label %110

51:                                               ; preds = %47
  %52 = load i64, ptr %3, align 8, !tbaa !3
  %53 = call i32 @H5Tget_strpad(i64 noundef %52)
  store i32 %53, ptr %11, align 4, !tbaa !16
  %54 = icmp slt i32 %53, 0
  br i1 %54, label %55, label %56

55:                                               ; preds = %51
  br label %110

56:                                               ; preds = %51
  %57 = load i32, ptr %11, align 4, !tbaa !16
  %58 = icmp ne i32 0, %57
  br i1 %58, label %59, label %60

59:                                               ; preds = %56
  store i32 0, ptr %6, align 4, !tbaa !16
  br label %110

60:                                               ; preds = %56
  %61 = load i64, ptr %3, align 8, !tbaa !3
  %62 = call i64 @H5Tget_size(i64 noundef %61)
  store i64 %62, ptr %9, align 8, !tbaa !3
  %63 = icmp eq i64 %62, 0
  br i1 %63, label %64, label %65

64:                                               ; preds = %60
  br label %110

65:                                               ; preds = %60
  %66 = load i64, ptr %9, align 8, !tbaa !3
  %67 = icmp ne i64 %66, 16
  br i1 %67, label %68, label %69

68:                                               ; preds = %65
  store i32 0, ptr %6, align 4, !tbaa !16
  br label %110

69:                                               ; preds = %65
  %70 = load i64, ptr %9, align 8, !tbaa !3
  %71 = mul i64 %70, 1
  %72 = call noalias ptr @malloc(i64 noundef %71) #11
  store ptr %72, ptr %8, align 8, !tbaa !14
  %73 = load ptr, ptr %8, align 8, !tbaa !14
  %74 = icmp eq ptr %73, null
  br i1 %74, label %75, label %76

75:                                               ; preds = %69
  br label %110

76:                                               ; preds = %69
  %77 = load i64, ptr %4, align 8, !tbaa !3
  %78 = load i64, ptr %3, align 8, !tbaa !3
  %79 = load ptr, ptr %8, align 8, !tbaa !14
  %80 = call i32 @H5Aread(i64 noundef %77, i64 noundef %78, ptr noundef %79)
  %81 = icmp slt i32 %80, 0
  br i1 %81, label %82, label %83

82:                                               ; preds = %76
  br label %110

83:                                               ; preds = %76
  %84 = load ptr, ptr %8, align 8, !tbaa !14
  %85 = load ptr, ptr %8, align 8, !tbaa !14
  %86 = call i64 @strlen(ptr noundef %85) #13
  %87 = icmp ult i64 15, %86
  br i1 %87, label %88, label %89

88:                                               ; preds = %83
  br label %92

89:                                               ; preds = %83
  %90 = load ptr, ptr %8, align 8, !tbaa !14
  %91 = call i64 @strlen(ptr noundef %90) #13
  br label %92

92:                                               ; preds = %89, %88
  %93 = phi i64 [ 15, %88 ], [ %91, %89 ]
  %94 = call i32 @strncmp(ptr noundef %84, ptr noundef @.str.2, i64 noundef %93) #13
  %95 = icmp eq i32 %94, 0
  br i1 %95, label %96, label %97

96:                                               ; preds = %92
  store i32 1, ptr %6, align 4, !tbaa !16
  br label %97

97:                                               ; preds = %96, %92
  %98 = load ptr, ptr %8, align 8, !tbaa !14
  call void @free(ptr noundef %98) #10
  %99 = load i64, ptr %3, align 8, !tbaa !3
  %100 = call i32 @H5Tclose(i64 noundef %99)
  %101 = icmp slt i32 %100, 0
  br i1 %101, label %102, label %103

102:                                              ; preds = %97
  br label %110

103:                                              ; preds = %97
  %104 = load i64, ptr %4, align 8, !tbaa !3
  %105 = call i32 @H5Aclose(i64 noundef %104)
  %106 = icmp slt i32 %105, 0
  br i1 %106, label %107, label %108

107:                                              ; preds = %103
  br label %110

108:                                              ; preds = %103
  br label %109

109:                                              ; preds = %108
  br label %110

110:                                              ; preds = %109, %107, %102, %82, %75, %68, %64, %59, %55, %50, %46, %41, %36, %31, %27, %22, %18
  %111 = load i32, ptr %6, align 4, !tbaa !16
  %112 = icmp slt i32 %111, 0
  br i1 %112, label %113, label %140

113:                                              ; preds = %110
  %114 = load ptr, ptr %8, align 8, !tbaa !14
  call void @free(ptr noundef %114) #10
  call void @llvm.lifetime.start.p0(i64 4, ptr %12) #10
  call void @llvm.lifetime.start.p0(i64 8, ptr %13) #10
  call void @llvm.lifetime.start.p0(i64 8, ptr %14) #10
  %115 = call i32 @H5Eauto_is_v2(i64 noundef 0, ptr noundef %12)
  %116 = load i32, ptr %12, align 4, !tbaa !16
  %117 = icmp ne i32 %116, 0
  br i1 %117, label %118, label %121

118:                                              ; preds = %113
  %119 = call i32 @H5Eget_auto2(i64 noundef 0, ptr noundef %13, ptr noundef %14)
  %120 = call i32 @H5Eset_auto2(i64 noundef 0, ptr noundef null, ptr noundef null)
  br label %124

121:                                              ; preds = %113
  %122 = call i32 @H5Eget_auto1(ptr noundef %13, ptr noundef %14)
  %123 = call i32 @H5Eset_auto1(ptr noundef null, ptr noundef null)
  br label %124

124:                                              ; preds = %121, %118
  %125 = load i64, ptr %4, align 8, !tbaa !3
  %126 = call i32 @H5Aclose(i64 noundef %125)
  %127 = load i64, ptr %3, align 8, !tbaa !3
  %128 = call i32 @H5Tclose(i64 noundef %127)
  %129 = load i32, ptr %12, align 4, !tbaa !16
  %130 = icmp ne i32 %129, 0
  br i1 %130, label %131, label %135

131:                                              ; preds = %124
  %132 = load ptr, ptr %13, align 8, !tbaa !32
  %133 = load ptr, ptr %14, align 8, !tbaa !22
  %134 = call i32 @H5Eset_auto2(i64 noundef 0, ptr noundef %132, ptr noundef %133)
  br label %139

135:                                              ; preds = %124
  %136 = load ptr, ptr %13, align 8, !tbaa !32
  %137 = load ptr, ptr %14, align 8, !tbaa !22
  %138 = call i32 @H5Eset_auto1(ptr noundef %136, ptr noundef %137)
  br label %139

139:                                              ; preds = %135, %131
  call void @llvm.lifetime.end.p0(i64 8, ptr %14) #10
  call void @llvm.lifetime.end.p0(i64 8, ptr %13) #10
  call void @llvm.lifetime.end.p0(i64 4, ptr %12) #10
  br label %140

140:                                              ; preds = %139, %110
  %141 = load i32, ptr %6, align 4, !tbaa !16
  call void @llvm.lifetime.end.p0(i64 4, ptr %11) #10
  call void @llvm.lifetime.end.p0(i64 4, ptr %10) #10
  call void @llvm.lifetime.end.p0(i64 8, ptr %9) #10
  call void @llvm.lifetime.end.p0(i64 8, ptr %8) #10
  call void @llvm.lifetime.end.p0(i64 4, ptr %7) #10
  call void @llvm.lifetime.end.p0(i64 4, ptr %6) #10
  call void @llvm.lifetime.end.p0(i64 4, ptr %5) #10
  call void @llvm.lifetime.end.p0(i64 8, ptr %4) #10
  call void @llvm.lifetime.end.p0(i64 8, ptr %3) #10
  ret i32 %141
}