; Function Attrs: nounwind uwtable
define range(i32 -1, 2) i32 @H5DSis_scale(i64 noundef %0) local_unnamed_addr #0 {
  %2 = alloca i32, align 4
  %3 = alloca %union.anon.10, align 8
  %4 = alloca ptr, align 8
  %5 = tail call i32 @H5Iget_type(i64 noundef %0) #10
  %.not = icmp eq i32 %5, 5
  br i1 %.not, label %6, label %.thread

6:                                                ; preds = %1
  %7 = tail call i32 @H5Aexists(i64 noundef %0, ptr noundef nonnull @.str.1) #10
  %8 = icmp slt i32 %7, 0
  br i1 %8, label %.thread, label %9

9:                                                ; preds = %6
  %10 = icmp eq i32 %7, 0
  br i1 %10, label %.thread59, label %11

11:                                               ; preds = %9
  %12 = tail call i64 @H5Aopen(i64 noundef %0, ptr noundef nonnull @.str.1, i64 noundef 0) #10
  %13 = icmp slt i64 %12, 0
  br i1 %13, label %.thread, label %14

14:                                               ; preds = %11
  %15 = tail call i64 @H5Aget_type(i64 noundef %12) #10
  %16 = icmp slt i64 %15, 0
  br i1 %16, label %.thread, label %17

17:                                               ; preds = %14
  %18 = tail call i32 @H5Tget_class(i64 noundef %15) #10
  %19 = icmp slt i32 %18, 0
  br i1 %19, label %.thread, label %20

20:                                               ; preds = %17
  %.not42 = icmp eq i32 %18, 3
  br i1 %.not42, label %21, label %.thread59

21:                                               ; preds = %20
  %22 = tail call i32 @H5Tget_strpad(i64 noundef %15) #10
  %23 = icmp slt i32 %22, 0
  br i1 %23, label %.thread, label %24

24:                                               ; preds = %21
  %.not43 = icmp eq i32 %22, 0
  br i1 %.not43, label %25, label %.thread59

25:                                               ; preds = %24
  %26 = tail call i64 @H5Tget_size(i64 noundef %15) #10
  switch i64 %26, label %.thread59 [
    i64 0, label %.thread
    i64 16, label %27
  ]

27:                                               ; preds = %25
  %28 = tail call noalias dereferenceable_or_null(16) ptr @malloc(i64 noundef 16) #11
  %29 = icmp eq ptr %28, null
  br i1 %29, label %.thread, label %30

30:                                               ; preds = %27
  %31 = tail call i32 @H5Aread(i64 noundef %12, i64 noundef %15, ptr noundef nonnull %28) #10
  %32 = icmp slt i32 %31, 0
  br i1 %32, label %.thread, label %33

33:                                               ; preds = %30
  %34 = tail call i64 @strlen(ptr noundef nonnull dereferenceable(1) %28) #13
  %spec.select = tail call i64 @llvm.umin.i64(i64 %34, i64 15)
  %35 = tail call i32 @strncmp(ptr noundef nonnull %28, ptr noundef nonnull @.str.2, i64 noundef %spec.select) #13
  %.not64 = icmp eq i32 %35, 0
  tail call void @free(ptr noundef nonnull %28) #10
  %36 = tail call i32 @H5Tclose(i64 noundef %15) #10
  %37 = icmp slt i32 %36, 0
  br i1 %37, label %40, label %38

38:                                               ; preds = %33
  %39 = tail call i32 @H5Aclose(i64 noundef %12) #10
  br label %40

40:                                               ; preds = %38, %33
  br i1 %.not64, label %.thread59, label %.thread

.thread:                                          ; preds = %30, %27, %25, %21, %17, %14, %11, %6, %1, %40
  %.055 = phi i64 [ %15, %40 ], [ %15, %30 ], [ %15, %27 ], [ %15, %25 ], [ %15, %21 ], [ %15, %17 ], [ %15, %14 ], [ -1, %11 ], [ -1, %6 ], [ -1, %1 ]
  %.02854 = phi i64 [ %12, %40 ], [ %12, %30 ], [ %12, %27 ], [ %12, %25 ], [ %12, %21 ], [ %12, %17 ], [ %12, %14 ], [ %12, %11 ], [ -1, %6 ], [ -1, %1 ]
  %.03051 = phi ptr [ %28, %40 ], [ %28, %30 ], [ null, %27 ], [ null, %25 ], [ null, %21 ], [ null, %17 ], [ null, %14 ], [ null, %11 ], [ null, %6 ], [ null, %1 ]
  tail call void @free(ptr noundef %.03051) #10
  call void @llvm.lifetime.start.p0(i64 4, ptr nonnull %2) #10
  call void @llvm.lifetime.start.p0(i64 8, ptr nonnull %3) #10
  call void @llvm.lifetime.start.p0(i64 8, ptr nonnull %4) #10
  %41 = call i32 @H5Eauto_is_v2(i64 noundef 0, ptr noundef nonnull %2) #10
  %42 = load i32, ptr %2, align 4, !tbaa !14
  %.not45 = icmp eq i32 %42, 0
  br i1 %.not45, label %46, label %43

43:                                               ; preds = %.thread
  %44 = call i32 @H5Eget_auto2(i64 noundef 0, ptr noundef nonnull %3, ptr noundef nonnull %4) #10
  %45 = call i32 @H5Eset_auto2(i64 noundef 0, ptr noundef null, ptr noundef null) #10
  br label %49

46:                                               ; preds = %.thread
  %47 = call i32 @H5Eget_auto1(ptr noundef nonnull %3, ptr noundef nonnull %4) #10
  %48 = call i32 @H5Eset_auto1(ptr noundef null, ptr noundef null) #10
  br label %49

49:                                               ; preds = %46, %43
  %50 = call i32 @H5Aclose(i64 noundef %.02854) #10
  %51 = call i32 @H5Tclose(i64 noundef %.055) #10
  %52 = load i32, ptr %2, align 4, !tbaa !14
  %.not46 = icmp eq i32 %52, 0
  %53 = load ptr, ptr %3, align 8, !tbaa !17
  %54 = load ptr, ptr %4, align 8, !tbaa !33
  br i1 %.not46, label %57, label %55

55:                                               ; preds = %49
  %56 = call i32 @H5Eset_auto2(i64 noundef 0, ptr noundef %53, ptr noundef %54) #10
  br label %59

57:                                               ; preds = %49
  %58 = call i32 @H5Eset_auto1(ptr noundef %53, ptr noundef %54) #10
  br label %59

59:                                               ; preds = %57, %55
  call void @llvm.lifetime.end.p0(i64 8, ptr nonnull %4) #10
  call void @llvm.lifetime.end.p0(i64 8, ptr nonnull %3) #10
  call void @llvm.lifetime.end.p0(i64 4, ptr nonnull %2) #10
  br label %.thread59

.thread59:                                        ; preds = %25, %24, %20, %9, %59, %40
  %.02952 = phi i32 [ -1, %59 ], [ 1, %40 ], [ 0, %9 ], [ 0, %20 ], [ 0, %24 ], [ 0, %25 ]
  ret i32 %.02952
}